target datalayout = "e-m:e-p270:32:32-p271:32:32-p272:64:64-i64:64-i128:128-f80:128-n8:16:32:64-S128"
target triple = "x86_64-pc-linux-gnu"

%struct.AVCodecContext = type { ptr, i32, i32, ptr, i32, i32, ptr, ptr, ptr, i64, i32, i32, ptr, i32, %struct.AVRational, %struct.AVRational, %struct.AVRational, i32, i32, i32, i32, i32, %struct.AVRational, i32, i32, i32, i32, i32, i32, i32, i32, i32, i32, i32, ptr, ptr, i32, float, float, float, float, float, float, float, float, float, i32, i32, i32, i32, i32, i32, i32, i32, i32, i32, i32, i32, ptr, ptr, ptr, i32, i32, i32, i32, i32, i32, i32, i32, i32, i32, %struct.AVChannelLayout, i32, i32, i32, i32, i32, i32, i32, i32, ptr, i32, i32, i32, float, float, i32, i32, i32, i32, i32, ptr, i64, i64, float, float, i32, i32, ptr, ptr, i32, i32, i32, i32, i32, ptr, ptr, ptr, ptr, i32, i32, [8 x i64], i32, i32, i32, i32, i32, i32, i32, ptr, ptr, i32, i32, i32, i32, i32, i32, i32, i32, i32, i32, ptr, ptr, i32, i32, ptr, ptr, ptr, ptr, i32, i32, i64, i32, i32, i64, ptr, i64, ptr, i32, ptr, i32 }
%struct.AVRational = type { i32, i32 }
%struct.AVChannelLayout = type { i32, i32, %union.anon, ptr }
%union.anon = type { i64 }
%struct.AVCodecInternal = type { i32, i32, i32, ptr, ptr, ptr, ptr, ptr, ptr, ptr, i32, ptr, ptr, ptr, i32, i32, ptr, i32, ptr, ptr, i32, i32 }
%struct.VAAPIDecodePicture = type { i32, i32, ptr, i32, i32, ptr, i32 }
%struct.VAAPIDecodeContext = type { i32, i32, ptr, ptr, ptr, ptr, i32, i32, %struct._VASurfaceAttrib }
%struct._VASurfaceAttrib = type { i32, i32, %struct._VAGenericValue }
%struct._VAGenericValue = type { i32, %union.anon.0 }
%union.anon.0 = type { ptr }
%struct.AVVAAPIDeviceContext = type { ptr, i32 }

@.str = private unnamed_addr constant [30 x i8] c"Assertion %s failed at %s:%d\0A\00", align 1
@.str.1 = private unnamed_addr constant [57 x i8] c"pic->nb_param_buffers <= pic->nb_param_buffers_allocated\00", align 1
@.str.2 = private unnamed_addr constant [26 x i8] c"libavcodec/vaapi_decode.c\00", align 1
@.str.3 = private unnamed_addr constant [61 x i8] c"pic->nb_param_buffers + 1 <= pic->nb_param_buffers_allocated\00", align 1
@.str.4 = private unnamed_addr constant [55 x i8] c"Failed to create parameter buffer (type %d): %d (%s).\0A\00", align 1
@.str.5 = private unnamed_addr constant [43 x i8] c"Param buffer (type %d, %zu bytes) is %#x.\0A\00", align 1

; Function Attrs: nounwind uwtable
define i32 @ff_vaapi_decode_make_param_buffer(ptr noundef %0, ptr noundef %1, i32 noundef %2, ptr noundef %3, i64 noundef %4) #0 {
  %6 = alloca i32, align 4
  %7 = alloca ptr, align 8
  %8 = alloca ptr, align 8
  %9 = alloca i32, align 4
  %10 = alloca ptr, align 8
  %11 = alloca i64, align 8
  %12 = alloca ptr, align 8
  %13 = alloca i32, align 4
  %14 = alloca ptr, align 8
  %15 = alloca i32, align 4
  store ptr %0, ptr %7, align 8, !tbaa !4
  store ptr %1, ptr %8, align 8, !tbaa !9
  store i32 %2, ptr %9, align 4, !tbaa !11
  store ptr %3, ptr %10, align 8, !tbaa !13
  store i64 %4, ptr %11, align 8, !tbaa !14
  call void @llvm.lifetime.start.p0(i64 8, ptr %12) #6
  %16 = load ptr, ptr %7, align 8, !tbaa !4
  %17 = getelementptr inbounds nuw %struct.AVCodecContext, ptr %16, i32 0, i32 7
  %18 = load ptr, ptr %17, align 8, !tbaa !16
  %19 = getelementptr inbounds nuw %struct.AVCodecInternal, ptr %18, i32 0, i32 16
  %20 = load ptr, ptr %19, align 8, !tbaa !34
  store ptr %20, ptr %12, align 8, !tbaa !41
  call void @llvm.lifetime.start.p0(i64 4, ptr %13) #6
  br label %21

21:                                               ; preds = %5
  %22 = load ptr, ptr %8, align 8, !tbaa !9
  %23 = getelementptr inbounds nuw %struct.VAAPIDecodePicture, ptr %22, i32 0, i32 1
  %24 = load i32, ptr %23, align 4, !tbaa !43
  %25 = load ptr, ptr %8, align 8, !tbaa !9
  %26 = getelementptr inbounds nuw %struct.VAAPIDecodePicture, ptr %25, i32 0, i32 3
  %27 = load i32, ptr %26, align 8, !tbaa !45
  %28 = icmp sle i32 %24, %27
  br i1 %28, label %30, label %29

29:                                               ; preds = %21
  call void (ptr, i32, ptr, ...) @av_log(ptr noundef null, i32 noundef 0, ptr noundef @.str, ptr noundef @.str.1, ptr noundef @.str.2, i32 noundef 43)
  call void @abort() #7
  unreachable

30:                                               ; preds = %21
  br label %31

31:                                               ; preds = %30
  br label %32

32:                                               ; preds = %31
  %33 = load ptr, ptr %8, align 8, !tbaa !9
  %34 = getelementptr inbounds nuw %struct.VAAPIDecodePicture, ptr %33, i32 0, i32 1
  %35 = load i32, ptr %34, align 4, !tbaa !43
  %36 = load ptr, ptr %8, align 8, !tbaa !9
  %37 = getelementptr inbounds nuw %struct.VAAPIDecodePicture, ptr %36, i32 0, i32 3
  %38 = load i32, ptr %37, align 8, !tbaa !45
  %39 = icmp eq i32 %35, %38
  br i1 %39, label %40, label %64

40:                                               ; preds = %32
  call void @llvm.lifetime.start.p0(i64 8, ptr %14) #6
  %41 = load ptr, ptr %8, align 8, !tbaa !9
  %42 = getelementptr inbounds nuw %struct.VAAPIDecodePicture, ptr %41, i32 0, i32 2
  %43 = load ptr, ptr %42, align 8, !tbaa !46
  %44 = load ptr, ptr %8, align 8, !tbaa !9
  %45 = getelementptr inbounds nuw %struct.VAAPIDecodePicture, ptr %44, i32 0, i32 3
  %46 = load i32, ptr %45, align 8, !tbaa !45
  %47 = add nsw i32 %46, 16
  %48 = sext i32 %47 to i64
  %49 = call ptr @av_realloc_array(ptr noundef %43, i64 noundef %48, i64 noundef 4)
  store ptr %49, ptr %14, align 8, !tbaa !47
  %50 = load ptr, ptr %14, align 8, !tbaa !47
  %51 = icmp ne ptr %50, null
  br i1 %51, label %53, label %52

52:                                               ; preds = %40
  store i32 -12, ptr %6, align 4
  store i32 1, ptr %15, align 4
  br label %61

53:                                               ; preds = %40
  %54 = load ptr, ptr %14, align 8, !tbaa !47
  %55 = load ptr, ptr %8, align 8, !tbaa !9
  %56 = getelementptr inbounds nuw %struct.VAAPIDecodePicture, ptr %55, i32 0, i32 2
  store ptr %54, ptr %56, align 8, !tbaa !46
  %57 = load ptr, ptr %8, align 8, !tbaa !9
  %58 = getelementptr inbounds nuw %struct.VAAPIDecodePicture, ptr %57, i32 0, i32 3
  %59 = load i32, ptr %58, align 8, !tbaa !45
  %60 = add nsw i32 %59, 16
  store i32 %60, ptr %58, align 8, !tbaa !45
  store i32 0, ptr %15, align 4
  br label %61

61:                                               ; preds = %53, %52
  call void @llvm.lifetime.end.p0(i64 8, ptr %14) #6
  %62 = load i32, ptr %15, align 4
  switch i32 %62, label %124 [
    i32 0, label %63
  ]

63:                                               ; preds = %61
  br label %64

64:                                               ; preds = %63, %32
  br label %65

65:                                               ; preds = %64
  %66 = load ptr, ptr %8, align 8, !tbaa !9
  %67 = getelementptr inbounds nuw %struct.VAAPIDecodePicture, ptr %66, i32 0, i32 1
  %68 = load i32, ptr %67, align 4, !tbaa !43
  %69 = add nsw i32 %68, 1
  %70 = load ptr, ptr %8, align 8, !tbaa !9
  %71 = getelementptr inbounds nuw %struct.VAAPIDecodePicture, ptr %70, i32 0, i32 3
  %72 = load i32, ptr %71, align 8, !tbaa !45
  %73 = icmp sle i32 %69, %72
  br i1 %73, label %75, label %74

74:                                               ; preds = %65
  call void (ptr, i32, ptr, ...) @av_log(ptr noundef null, i32 noundef 0, ptr noundef @.str, ptr noundef @.str.3, ptr noundef @.str.2, i32 noundef 55)
  call void @abort() #7
  unreachable

75:                                               ; preds = %65
  br label %76

76:                                               ; preds = %75
  br label %77

77:                                               ; preds = %76
  %78 = load ptr, ptr %12, align 8, !tbaa !41
  %79 = getelementptr inbounds nuw %struct.VAAPIDecodeContext, ptr %78, i32 0, i32 3
  %80 = load ptr, ptr %79, align 8, !tbaa !48
  %81 = getelementptr inbounds nuw %struct.AVVAAPIDeviceContext, ptr %80, i32 0, i32 0
  %82 = load ptr, ptr %81, align 8, !tbaa !56
  %83 = load ptr, ptr %12, align 8, !tbaa !41
  %84 = getelementptr inbounds nuw %struct.VAAPIDecodeContext, ptr %83, i32 0, i32 1
  %85 = load i32, ptr %84, align 4, !tbaa !58
  %86 = load i32, ptr %9, align 4, !tbaa !11
  %87 = load i64, ptr %11, align 8, !tbaa !14
  %88 = trunc i64 %87 to i32
  %89 = load ptr, ptr %10, align 8, !tbaa !13
  %90 = load ptr, ptr %8, align 8, !tbaa !9
  %91 = getelementptr inbounds nuw %struct.VAAPIDecodePicture, ptr %90, i32 0, i32 2
  %92 = load ptr, ptr %91, align 8, !tbaa !46
  %93 = load ptr, ptr %8, align 8, !tbaa !9
  %94 = getelementptr inbounds nuw %struct.VAAPIDecodePicture, ptr %93, i32 0, i32 1
  %95 = load i32, ptr %94, align 4, !tbaa !43
  %96 = sext i32 %95 to i64
  %97 = getelementptr inbounds i32, ptr %92, i64 %96
  %98 = call i32 @vaCreateBuffer(ptr noundef %82, i32 noundef %85, i32 noundef %86, i32 noundef %88, i32 noundef 1, ptr noundef %89, ptr noundef %97)
  store i32 %98, ptr %13, align 4, !tbaa !11
  %99 = load i32, ptr %13, align 4, !tbaa !11
  %100 = icmp ne i32 %99, 0
  br i1 %100, label %101, label %107

101:                                              ; preds = %77
  %102 = load ptr, ptr %7, align 8, !tbaa !4
  %103 = load i32, ptr %9, align 4, !tbaa !11
  %104 = load i32, ptr %13, align 4, !tbaa !11
  %105 = load i32, ptr %13, align 4, !tbaa !11
  %106 = call ptr @vaErrorStr(i32 noundef %105)
  call void (ptr, i32, ptr, ...) @av_log(ptr noundef %102, i32 noundef 16, ptr noundef @.str.4, i32 noundef %103, i32 noundef %104, ptr noundef %106)
  store i32 -5, ptr %6, align 4
  store i32 1, ptr %15, align 4
  br label %124

107:                                              ; preds = %77
  %108 = load ptr, ptr %7, align 8, !tbaa !4
  %109 = load i32, ptr %9, align 4, !tbaa !11
  %110 = load i64, ptr %11, align 8, !tbaa !14
  %111 = load ptr, ptr %8, align 8, !tbaa !9
  %112 = getelementptr inbounds nuw %struct.VAAPIDecodePicture, ptr %111, i32 0, i32 2
  %113 = load ptr, ptr %112, align 8, !tbaa !46
  %114 = load ptr, ptr %8, align 8, !tbaa !9
  %115 = getelementptr inbounds nuw %struct.VAAPIDecodePicture, ptr %114, i32 0, i32 1
  %116 = load i32, ptr %115, align 4, !tbaa !43
  %117 = sext i32 %116 to i64
  %118 = getelementptr inbounds i32, ptr %113, i64 %117
  %119 = load i32, ptr %118, align 4, !tbaa !11
  call void (ptr, i32, ptr, ...) @av_log(ptr noundef %108, i32 noundef 48, ptr noundef @.str.5, i32 noundef %109, i64 noundef %110, i32 noundef %119)
  %120 = load ptr, ptr %8, align 8, !tbaa !9
  %121 = getelementptr inbounds nuw %struct.VAAPIDecodePicture, ptr %120, i32 0, i32 1
  %122 = load i32, ptr %121, align 4, !tbaa !43
  %123 = add nsw i32 %122, 1
  store i32 %123, ptr %121, align 4, !tbaa !43
  store i32 0, ptr %6, align 4
  store i32 1, ptr %15, align 4
  br label %124

124:                                              ; preds = %107, %101, %61
  call void @llvm.lifetime.end.p0(i64 4, ptr %13) #6
  call void @llvm.lifetime.end.p0(i64 8, ptr %12) #6
  %125 = load i32, ptr %6, align 4
  ret i32 %125
}