; Function Attrs: nounwind uwtable
define range(i32 -12, 1) i32 @ff_vaapi_decode_make_param_buffer(ptr noundef %0, ptr noundef captures(none) %1, i32 noundef %2, ptr noundef %3, i64 noundef %4) local_unnamed_addr #0 {
  %6 = getelementptr inbounds nuw i8, ptr %0, i64 40
  %7 = load ptr, ptr %6, align 8, !tbaa !4
  %8 = getelementptr inbounds nuw i8, ptr %7, i64 112
  %9 = load ptr, ptr %8, align 8, !tbaa !27
  %10 = getelementptr inbounds nuw i8, ptr %1, i64 4
  %11 = load i32, ptr %10, align 4, !tbaa !34
  %12 = getelementptr inbounds nuw i8, ptr %1, i64 16
  %13 = load i32, ptr %12, align 8, !tbaa !36
  %.not = icmp sgt i32 %11, %13
  br i1 %.not, label %14, label %15

14:                                               ; preds = %5
  tail call void (ptr, i32, ptr, ...) @av_log(ptr noundef null, i32 noundef 0, ptr noundef nonnull @.str, ptr noundef nonnull @.str.1, ptr noundef nonnull @.str.2, i32 noundef 43) #4
  tail call void @abort() #5
  unreachable

15:                                               ; preds = %5
  %16 = icmp eq i32 %11, %13
  br i1 %16, label %17, label %26

17:                                               ; preds = %15
  %18 = getelementptr inbounds nuw i8, ptr %1, i64 8
  %19 = load ptr, ptr %18, align 8, !tbaa !37
  %20 = add nsw i32 %11, 16
  %21 = sext i32 %20 to i64
  %22 = tail call ptr @av_realloc_array(ptr noundef %19, i64 noundef %21, i64 noundef 4) #4
  %.not37.not = icmp eq ptr %22, null
  br i1 %.not37.not, label %.critedge, label %23

23:                                               ; preds = %17
  store ptr %22, ptr %18, align 8, !tbaa !37
  %24 = load i32, ptr %12, align 8, !tbaa !36
  %25 = add nsw i32 %24, 16
  store i32 %25, ptr %12, align 8, !tbaa !36
  %.pre = load i32, ptr %10, align 4, !tbaa !34
  br label %26

26:                                               ; preds = %23, %15
  %27 = phi i32 [ %25, %23 ], [ %13, %15 ]
  %28 = phi i32 [ %.pre, %23 ], [ %11, %15 ]
  %.not38.not = icmp slt i32 %28, %27
  br i1 %.not38.not, label %30, label %29

29:                                               ; preds = %26
  tail call void (ptr, i32, ptr, ...) @av_log(ptr noundef null, i32 noundef 0, ptr noundef nonnull @.str, ptr noundef nonnull @.str.3, ptr noundef nonnull @.str.2, i32 noundef 55) #4
  tail call void @abort() #5
  unreachable

30:                                               ; preds = %26
  %31 = getelementptr inbounds nuw i8, ptr %9, i64 16
  %32 = load ptr, ptr %31, align 8, !tbaa !38
  %33 = load ptr, ptr %32, align 8, !tbaa !46
  %34 = getelementptr inbounds nuw i8, ptr %9, i64 4
  %35 = load i32, ptr %34, align 4, !tbaa !48
  %36 = trunc i64 %4 to i32
  %37 = getelementptr inbounds nuw i8, ptr %1, i64 8
  %38 = load ptr, ptr %37, align 8, !tbaa !37
  %39 = sext i32 %28 to i64
  %40 = getelementptr inbounds i32, ptr %38, i64 %39
  %41 = tail call i32 @vaCreateBuffer(ptr noundef %33, i32 noundef %35, i32 noundef %2, i32 noundef %36, i32 noundef 1, ptr noundef %3, ptr noundef %40) #4
  %.not39 = icmp eq i32 %41, 0
  br i1 %.not39, label %44, label %42

42:                                               ; preds = %30
  %43 = tail call ptr @vaErrorStr(i32 noundef %41) #4
  tail call void (ptr, i32, ptr, ...) @av_log(ptr noundef nonnull %0, i32 noundef 16, ptr noundef nonnull @.str.4, i32 noundef %2, i32 noundef %41, ptr noundef %43) #4
  br label %.critedge

44:                                               ; preds = %30
  %45 = load ptr, ptr %37, align 8, !tbaa !37
  %46 = load i32, ptr %10, align 4, !tbaa !34
  %47 = sext i32 %46 to i64
  %48 = getelementptr inbounds i32, ptr %45, i64 %47
  %49 = load i32, ptr %48, align 4, !tbaa !49
  tail call void (ptr, i32, ptr, ...) @av_log(ptr noundef nonnull %0, i32 noundef 48, ptr noundef nonnull @.str.5, i32 noundef %2, i64 noundef %4, i32 noundef %49) #4
  %50 = load i32, ptr %10, align 4, !tbaa !34
  %51 = add nsw i32 %50, 1
  store i32 %51, ptr %10, align 4, !tbaa !34
  br label %.critedge

.critedge:                                        ; preds = %17, %44, %42
  %.1 = phi i32 [ -5, %42 ], [ 0, %44 ], [ -12, %17 ]
  ret i32 %.1
}